; Function Attrs: null_pointer_is_valid sspstrong uwtable
define internal i32 @dissect_h245_T_al3_sendBufferSize(ptr noundef %0, i32 noundef %1, ptr noundef %2, ptr noundef %3, i32 noundef %4) #1 {
  %6 = alloca i32, align 4
  call void @llvm.lifetime.start.p0(i64 4, ptr nonnull %6) #13
  %7 = call i32 @dissect_per_constrained_integer(ptr noundef %0, i32 noundef %1, ptr noundef %2, ptr noundef %3, i32 noundef %4, i32 noundef 0, i32 noundef 16777215, ptr noundef nonnull %6, i1 noundef zeroext false)
  %8 = load ptr, ptr @h223_lc_params_temp, align 8
  %.not = icmp eq ptr %8, null
  br i1 %.not, label %16, label %9

9:                                                ; preds = %5
  %10 = getelementptr inbounds nuw i8, ptr %8, i64 8
  %11 = load ptr, ptr %10, align 8
  %.not6 = icmp eq ptr %11, null
  br i1 %.not6, label %16, label %12

12:                                               ; preds = %9
  %13 = load i32, ptr %6, align 4
  %14 = and i32 %13, 1048575
  %15 = getelementptr inbounds nuw i8, ptr %11, i64 4
  store i32 %14, ptr %15, align 4
  br label %16

16:                                               ; preds = %12, %9, %5
  call void @llvm.lifetime.end.p0(i64 4, ptr nonnull %6) #13
  ret i32 %7
}